; Function Attrs: mustprogress nofree norecurse nosync nounwind willreturn memory(readwrite, inaccessiblemem: none) uwtable
define hidden noundef ptr @_ZN10ciTypeFlow14work_list_nextEv(ptr nocapture noundef nonnull align 8 dereferenceable(88) %0) local_unnamed_addr #6 align 2 {
  %2 = getelementptr inbounds i8, ptr %0, i64 48
  %3 = load ptr, ptr %2, align 8
  %4 = getelementptr inbounds i8, ptr %3, i64 96
  %5 = load ptr, ptr %4, align 8
  store ptr %5, ptr %2, align 8
  store ptr null, ptr %4, align 8
  %6 = getelementptr inbounds i8, ptr %3, i64 92
  store i8 0, ptr %6, align 4
  ret ptr %3
}